target datalayout = "e-m:e-p270:32:32-p271:32:32-p272:64:64-i64:64-i128:128-f80:128-n8:16:32:64-S128"
target triple = "x86_64-pc-linux-gnu"

%"struct.std::__detail::_Hash_node_base" = type { ptr }
%"struct.std::__detail::_Prime_rehash_policy" = type { float, i64 }
%"class.std::set" = type { %"class.std::_Rb_tree" }
%"class.std::_Rb_tree" = type { %"struct.std::_Rb_tree<const Luau::Type *, const Luau::Type *, std::_Identity<const Luau::Type *>, std::less<const Luau::Type *>>::_Rb_tree_impl" }
%"struct.std::_Rb_tree<const Luau::Type *, const Luau::Type *, std::_Identity<const Luau::Type *>, std::less<const Luau::Type *>>::_Rb_tree_impl" = type { [8 x i8], %"struct.std::_Rb_tree_header" }
%"struct.std::_Rb_tree_header" = type { %"struct.std::_Rb_tree_node_base", i64 }
%"struct.std::_Rb_tree_node_base" = type { i32, ptr, ptr, ptr }
%"class.std::set.45" = type { %"class.std::_Rb_tree.46" }
%"class.std::_Rb_tree.46" = type { %"struct.std::_Rb_tree<const Luau::TypePackVar *, const Luau::TypePackVar *, std::_Identity<const Luau::TypePackVar *>, std::less<const Luau::TypePackVar *>>::_Rb_tree_impl" }
%"struct.std::_Rb_tree<const Luau::TypePackVar *, const Luau::TypePackVar *, std::_Identity<const Luau::TypePackVar *>, std::less<const Luau::TypePackVar *>>::_Rb_tree_impl" = type { [8 x i8], %"struct.std::_Rb_tree_header" }
%"struct.Luau::(anonymous namespace)::FindCyclicTypes" = type { %"struct.Luau::TypeVisitor.base", i8, %"class.Luau::Set.469", %"class.Luau::Set.473", %"class.std::set", %"class.std::set.45" }
%"struct.Luau::TypeVisitor.base" = type { %"struct.Luau::GenericTypeVisitor.base" }
%"struct.Luau::GenericTypeVisitor.base" = type <{ ptr, %"class.std::unordered_set", i8, [3 x i8], i32, i32 }>
%"class.std::unordered_set" = type { %"class.std::_Hashtable.452" }
%"class.std::_Hashtable.452" = type { ptr, i64, %"struct.std::__detail::_Hash_node_base", i64, %"struct.std::__detail::_Prime_rehash_policy", ptr }
%"class.Luau::Set.469" = type { %"class.Luau::DenseHashMap.470", i64 }
%"class.Luau::DenseHashMap.470" = type { %"class.Luau::detail::DenseHashTable.471" }
%"class.Luau::detail::DenseHashTable.471" = type <{ ptr, i64, i64, ptr, [8 x i8] }>
%"class.Luau::Set.473" = type { %"class.Luau::DenseHashMap.474", i64 }
%"class.Luau::DenseHashMap.474" = type { %"class.Luau::detail::DenseHashTable.475" }
%"class.Luau::detail::DenseHashTable.475" = type <{ ptr, i64, i64, ptr, [8 x i8] }>

; Function Attrs: mustprogress uwtable
define linkonce_odr dso_local noundef zeroext i1 @_ZN4Luau3SetIPKNS_4TypeENS_16DenseHashPointerEE6insertERKS3_(ptr noundef nonnull align 8 dereferenceable(48) %0, ptr noundef nonnull align 8 dereferenceable(8) %1) #5 comdat align 2 {
  %3 = alloca ptr, align 8
  %4 = alloca ptr, align 8
  %5 = alloca ptr, align 8
  %6 = alloca i8, align 1
  store ptr %0, ptr %3, align 8, !tbaa !1340
  store ptr %1, ptr %4, align 8, !tbaa !124
  %7 = load ptr, ptr %3, align 8
  call void @llvm.lifetime.start.p0(i64 8, ptr %5) #3
  %8 = getelementptr inbounds nuw %"class.Luau::Set.469", ptr %7, i32 0, i32 0
  %9 = load ptr, ptr %4, align 8, !tbaa !124
  %10 = call noundef nonnull align 1 dereferenceable(1) ptr @_ZN4Luau12DenseHashMapIPKNS_4TypeEbNS_16DenseHashPointerESt8equal_toIS3_EEixERKS3_(ptr noundef nonnull align 8 dereferenceable(40) %8, ptr noundef nonnull align 8 dereferenceable(8) %9)
  store ptr %10, ptr %5, align 8, !tbaa !113
  call void @llvm.lifetime.start.p0(i64 1, ptr %6) #3
  %11 = load ptr, ptr %5, align 8, !tbaa !113
  %12 = load i8, ptr %11, align 1, !tbaa !13, !range !15, !noundef !16
  %13 = trunc i8 %12 to i1
  %14 = xor i1 %13, true
  %15 = zext i1 %14 to i8
  store i8 %15, ptr %6, align 1, !tbaa !13
  %16 = load i8, ptr %6, align 1, !tbaa !13, !range !15, !noundef !16
  %17 = trunc i8 %16 to i1
  br i1 %17, label %18, label %23

18:                                               ; preds = %2
  %19 = load ptr, ptr %5, align 8, !tbaa !113
  store i8 1, ptr %19, align 1, !tbaa !13
  %20 = getelementptr inbounds nuw %"class.Luau::Set.469", ptr %7, i32 0, i32 1
  %21 = load i64, ptr %20, align 8, !tbaa !1342
  %22 = add i64 %21, 1
  store i64 %22, ptr %20, align 8, !tbaa !1342
  br label %23

23:                                               ; preds = %18, %2
  %24 = load i8, ptr %6, align 1, !tbaa !13, !range !15, !noundef !16
  %25 = trunc i8 %24 to i1
  call void @llvm.lifetime.end.p0(i64 1, ptr %6) #3
  call void @llvm.lifetime.end.p0(i64 8, ptr %5) #3
  ret i1 %25
}

; Function Attrs: mustprogress uwtable
define internal noundef zeroext i1 @_ZN4Luau12_GLOBAL__N_115FindCyclicTypes5visitEPKNS_4TypeE(ptr noundef nonnull align 8 dereferenceable(272) %0, ptr noundef %1) unnamed_addr #5 align 2 {
  %3 = alloca ptr, align 8
  %4 = alloca ptr, align 8
  store ptr %0, ptr %3, align 8, !tbaa !1333
  store ptr %1, ptr %4, align 8, !tbaa !107
  %5 = load ptr, ptr %3, align 8
  %6 = getelementptr inbounds nuw %"struct.Luau::(anonymous namespace)::FindCyclicTypes", ptr %5, i32 0, i32 2
  %7 = call noundef zeroext i1 @_ZN4Luau3SetIPKNS_4TypeENS_16DenseHashPointerEE6insertERKS3_(ptr noundef nonnull align 8 dereferenceable(48) %6, ptr noundef nonnull align 8 dereferenceable(8) %4)
  ret i1 %7
}